; Function Attrs: mustprogress nounwind uwtable
define void @_ZN5boost4urls8url_base13to_lower_implEi(ptr noundef nonnull align 8 dereferenceable(216) %0, i32 noundef %1) local_unnamed_addr #6 align 2 {
  %3 = getelementptr inbounds nuw i8, ptr %0, i64 200
  %4 = load ptr, ptr %3, align 8, !tbaa !16
  %5 = getelementptr inbounds i8, ptr %0, i64 16
  %6 = tail call noundef i64 @_ZNK5boost4urls6detail8url_impl6offsetEi(ptr noundef nonnull align 8 dereferenceable(171) %5, i32 noundef %1) #30
  %7 = getelementptr inbounds nuw i8, ptr %4, i64 %6
  %8 = load ptr, ptr %3, align 8, !tbaa !16
  %9 = add nsw i32 %1, 1
  %10 = tail call noundef i64 @_ZNK5boost4urls6detail8url_impl6offsetEi(ptr noundef nonnull align 8 dereferenceable(171) %5, i32 noundef %9) #30
  %11 = getelementptr inbounds nuw i8, ptr %8, i64 %10
  %12 = icmp ult ptr %7, %11
  br i1 %12, label %.lr.ph, label %._crit_edge

.lr.ph:                                           ; preds = %2, %.lr.ph
  %.07 = phi ptr [ %17, %.lr.ph ], [ %7, %2 ]
  %13 = load i8, ptr %.07, align 1, !tbaa !25
  %14 = add i8 %13, -65
  %or.cond.i.i = icmp ult i8 %14, 26
  %15 = add nuw nsw i8 %13, 32
  %16 = select i1 %or.cond.i.i, i8 %15, i8 %13
  store i8 %16, ptr %.07, align 1, !tbaa !25
  %17 = getelementptr inbounds nuw i8, ptr %.07, i64 1
  %18 = icmp ult ptr %17, %11
  br i1 %18, label %.lr.ph, label %._crit_edge, !llvm.loop !202

._crit_edge:                                      ; preds = %.lr.ph, %2
  ret void
}